; Function Attrs: inlinehint nounwind uwtable
define hidden ptr @_mi_heap_malloc_zero_ex(ptr noundef %0, i64 noundef %1, i1 noundef zeroext %2, i64 noundef %3) local_unnamed_addr #0 {
  %5 = icmp ult i64 %1, 1025
  br i1 %5, label %6, label %30, !prof !8

6:                                                ; preds = %4
  %7 = add nuw nsw i64 %1, 7
  %8 = lshr i64 %7, 3
  %9 = getelementptr inbounds nuw i8, ptr %0, i64 232
  %10 = getelementptr inbounds nuw [129 x ptr], ptr %9, i64 0, i64 %8
  %11 = load ptr, ptr %10, align 8, !tbaa !9
  %12 = getelementptr inbounds nuw i8, ptr %11, i64 16
  %13 = load ptr, ptr %12, align 8, !tbaa !11
  %14 = icmp eq ptr %13, null
  br i1 %14, label %15, label %17, !prof !18

15:                                               ; preds = %6
  %16 = tail call noalias ptr @_mi_malloc_generic(ptr noundef nonnull %0, i64 noundef %1, i1 noundef zeroext %2, i64 noundef 0) #19
  br label %mi_heap_malloc_small_zero.exit

17:                                               ; preds = %6
  %.val.i.i = load i64, ptr %13, align 8, !tbaa !19
  %18 = inttoptr i64 %.val.i.i to ptr
  store ptr %18, ptr %12, align 8, !tbaa !11
  %19 = getelementptr inbounds nuw i8, ptr %11, i64 32
  %20 = load i16, ptr %19, align 8, !tbaa !21
  %21 = add i16 %20, 1
  store i16 %21, ptr %19, align 8, !tbaa !21
  br i1 %2, label %22, label %mi_heap_malloc_small_zero.exit, !prof !18

22:                                               ; preds = %17
  %23 = getelementptr inbounds nuw i8, ptr %11, i64 15
  %24 = load i8, ptr %23, align 1
  %25 = and i8 %24, 1
  %.not.i.i = icmp eq i8 %25, 0
  br i1 %.not.i.i, label %27, label %26

26:                                               ; preds = %22
  store i64 0, ptr %13, align 8, !tbaa !19
  br label %mi_heap_malloc_small_zero.exit

27:                                               ; preds = %22
  %28 = getelementptr inbounds nuw i8, ptr %11, i64 40
  %29 = load i64, ptr %28, align 8, !tbaa !22
  call void @llvm.assume(i1 true) [ "align"(ptr %13, i64 8) ]
  tail call void @llvm.memset.p0.i64(ptr nonnull align 8 %13, i8 0, i64 %29, i1 false)
  br label %mi_heap_malloc_small_zero.exit

30:                                               ; preds = %4
  %31 = tail call noalias ptr @_mi_malloc_generic(ptr noundef %0, i64 noundef %1, i1 noundef zeroext %2, i64 noundef %3) #19
  br label %mi_heap_malloc_small_zero.exit

mi_heap_malloc_small_zero.exit:                   ; preds = %27, %26, %17, %15, %30
  %.0 = phi ptr [ %31, %30 ], [ %16, %15 ], [ %13, %26 ], [ %13, %27 ], [ %13, %17 ]
  ret ptr %.0
}